; Function Attrs: mustprogress uwtable
define hidden noundef zeroext i1 @_ZN4lean9is_atomicERKNS_4exprE(ptr noundef nonnull readonly align 8 captures(none) dereferenceable(8) %0) local_unnamed_addr #0 personality ptr @__gxx_personality_v0 {
  %2 = load ptr, ptr %0, align 8, !tbaa !10
  %3 = getelementptr i8, ptr %2, i64 4
  %.val.i.i.i = load i32, ptr %3, align 4
  %4 = icmp ult i32 %.val.i.i.i, 201326592
  br i1 %4, label %switch.lookup, label %5

5:                                                ; preds = %1
  %6 = tail call ptr @__cxa_allocate_exception(i64 40) #16
  %7 = getelementptr inbounds nuw i8, ptr %6, i64 8
  %8 = getelementptr inbounds nuw i8, ptr %6, i64 24
  store ptr %8, ptr %7, align 8, !tbaa !28
  %9 = getelementptr inbounds nuw i8, ptr %6, i64 16
  store i64 0, ptr %9, align 8, !tbaa !31
  store i8 0, ptr %8, align 1, !tbaa !33
  store ptr getelementptr inbounds nuw inrange(-16, 24) (i8, ptr @_ZTVN4lean19unreachable_reachedE, i64 16), ptr %6, align 8, !tbaa !34
  tail call void @__cxa_throw(ptr nonnull %6, ptr nonnull @_ZTIN4lean19unreachable_reachedE, ptr nonnull @_ZN4lean9throwableD2Ev) #17
  unreachable

switch.lookup:                                    ; preds = %1
  %10 = lshr i32 %.val.i.i.i, 24
  %11 = trunc nuw nsw i32 %10 to i12
  %switch.downshift = lshr i12 543, %11
  %switch.masked = trunc i12 %switch.downshift to i1
  ret i1 %switch.masked
}